target datalayout = "e-m:e-p270:32:32-p271:32:32-p272:64:64-i64:64-i128:128-f80:128-n8:16:32:64-S128"
target triple = "x86_64-pc-linux-gnu"

%struct.HeapTupleData = type { i32, %struct.ItemPointerData, i32, ptr }
%struct.ItemPointerData = type { %struct.BlockIdData, i16 }
%struct.BlockIdData = type { i16, i16 }
%struct.HeapTupleHeaderData = type { %union.anon, %struct.ItemPointerData, i16, i16, i8, [0 x i8] }
%union.anon = type { %struct.HeapTupleFields }
%struct.HeapTupleFields = type { i32, i32, %union.anon.0 }
%union.anon.0 = type { i32 }
%struct.nameData = type { [64 x i8] }
%struct.FormData_pg_type = type { i32, %struct.nameData, i32, i32, i16, i8, i8, i8, i8, i8, i8, i32, i32, i32, i32, i32, i32, i32, i32, i32, i32, i32, i8, i8, i8, i32, i32, i32, i32 }

; Function Attrs: inlinehint nounwind uwtable
define internal ptr @GETSTRUCT(ptr noundef %0) #2 {
  %2 = alloca ptr, align 8
  store ptr %0, ptr %2, align 8
  %3 = load ptr, ptr %2, align 8
  %4 = getelementptr inbounds nuw %struct.HeapTupleData, ptr %3, i32 0, i32 3
  %5 = load ptr, ptr %4, align 8
  %6 = load ptr, ptr %2, align 8
  %7 = getelementptr inbounds nuw %struct.HeapTupleData, ptr %6, i32 0, i32 3
  %8 = load ptr, ptr %7, align 8
  %9 = getelementptr inbounds nuw %struct.HeapTupleHeaderData, ptr %8, i32 0, i32 4
  %10 = load i8, ptr %9, align 2
  %11 = zext i8 %10 to i32
  %12 = sext i32 %11 to i64
  %13 = getelementptr inbounds i8, ptr %5, i64 %12
  ret ptr %13
}

; Function Attrs: inlinehint nounwind uwtable
define internal i64 @ObjectIdGetDatum(i32 noundef %0) #2 {
  %2 = alloca i32, align 4
  store i32 %0, ptr %2, align 4
  %3 = load i32, ptr %2, align 4
  %4 = zext i32 %3 to i64
  ret i64 %4
}

; Function Attrs: nounwind uwtable
define dso_local i32 @get_base_element_type(i32 noundef %0) #0 {
  %2 = alloca i32, align 4
  %3 = alloca i32, align 4
  %4 = alloca ptr, align 8
  %5 = alloca ptr, align 8
  %6 = alloca i32, align 4
  %7 = alloca i32, align 4
  store i32 %0, ptr %3, align 4
  br label %8

8:                                                ; preds = %48, %1
  call void @llvm.lifetime.start.p0(i64 8, ptr %4) #7
  call void @llvm.lifetime.start.p0(i64 8, ptr %5) #7
  %9 = load i32, ptr %3, align 4
  %10 = call i64 @ObjectIdGetDatum(i32 noundef %9)
  %11 = call ptr @SearchSysCache1(i32 noundef 82, i64 noundef %10)
  store ptr %11, ptr %4, align 8
  %12 = load ptr, ptr %4, align 8
  %13 = icmp ne ptr %12, null
  br i1 %13, label %15, label %14

14:                                               ; preds = %8
  store i32 2, ptr %6, align 4
  br label %46

15:                                               ; preds = %8
  %16 = load ptr, ptr %4, align 8
  %17 = call ptr @GETSTRUCT(ptr noundef %16)
  store ptr %17, ptr %5, align 8
  %18 = load ptr, ptr %5, align 8
  %19 = getelementptr inbounds nuw %struct.FormData_pg_type, ptr %18, i32 0, i32 6
  %20 = load i8, ptr %19, align 1
  %21 = sext i8 %20 to i32
  %22 = icmp ne i32 %21, 100
  br i1 %22, label %23, label %41

23:                                               ; preds = %15
  call void @llvm.lifetime.start.p0(i64 4, ptr %7) #7
  %24 = load ptr, ptr %5, align 8
  %25 = getelementptr inbounds nuw %struct.FormData_pg_type, ptr %24, i32 0, i32 13
  %26 = load i32, ptr %25, align 4
  %27 = icmp ne i32 %26, 0
  br i1 %27, label %28, label %37

28:                                               ; preds = %23
  %29 = load ptr, ptr %5, align 8
  %30 = getelementptr inbounds nuw %struct.FormData_pg_type, ptr %29, i32 0, i32 12
  %31 = load i32, ptr %30, align 4
  %32 = icmp eq i32 %31, 6179
  br i1 %32, label %33, label %37

33:                                               ; preds = %28
  %34 = load ptr, ptr %5, align 8
  %35 = getelementptr inbounds nuw %struct.FormData_pg_type, ptr %34, i32 0, i32 13
  %36 = load i32, ptr %35, align 4
  store i32 %36, ptr %7, align 4
  br label %38

37:                                               ; preds = %28, %23
  store i32 0, ptr %7, align 4
  br label %38

38:                                               ; preds = %37, %33
  %39 = load ptr, ptr %4, align 8
  call void @ReleaseSysCache(ptr noundef %39)
  %40 = load i32, ptr %7, align 4
  store i32 %40, ptr %2, align 4
  store i32 1, ptr %6, align 4
  call void @llvm.lifetime.end.p0(i64 4, ptr %7) #7
  br label %46

41:                                               ; preds = %15
  %42 = load ptr, ptr %5, align 8
  %43 = getelementptr inbounds nuw %struct.FormData_pg_type, ptr %42, i32 0, i32 25
  %44 = load i32, ptr %43, align 4
  store i32 %44, ptr %3, align 4
  %45 = load ptr, ptr %4, align 8
  call void @ReleaseSysCache(ptr noundef %45)
  store i32 0, ptr %6, align 4
  br label %46

46:                                               ; preds = %41, %38, %14
  call void @llvm.lifetime.end.p0(i64 8, ptr %5) #7
  call void @llvm.lifetime.end.p0(i64 8, ptr %4) #7
  %47 = load i32, ptr %6, align 4
  switch i32 %47, label %52 [
    i32 0, label %48
    i32 2, label %49
    i32 1, label %50
  ]

48:                                               ; preds = %46
  br label %8

49:                                               ; preds = %46
  store i32 0, ptr %2, align 4
  br label %50

50:                                               ; preds = %49, %46
  %51 = load i32, ptr %2, align 4
  ret i32 %51

52:                                               ; preds = %46
  unreachable
}