; Function Attrs: nounwind uwtable
define dso_local i32 @get_base_element_type(i32 noundef %0) local_unnamed_addr #0 {
  %2 = zext i32 %0 to i64
  %3 = tail call ptr @SearchSysCache1(i32 noundef 82, i64 noundef %2) #8
  %.not29 = icmp eq ptr %3, null
  br i1 %.not29, label %.loopexit, label %.lr.ph

.lr.ph:                                           ; preds = %1, %20
  %4 = phi ptr [ %24, %20 ], [ %3, %1 ]
  %5 = getelementptr i8, ptr %4, i64 16
  %.val = load ptr, ptr %5, align 8
  %6 = getelementptr inbounds nuw i8, ptr %.val, i64 22
  %7 = load i8, ptr %6, align 2
  %8 = zext i8 %7 to i64
  %9 = getelementptr inbounds nuw i8, ptr %.val, i64 %8
  %10 = getelementptr inbounds nuw i8, ptr %9, i64 79
  %11 = load i8, ptr %10, align 1
  %.not18 = icmp eq i8 %11, 100
  br i1 %.not18, label %20, label %12

12:                                               ; preds = %.lr.ph
  %13 = getelementptr inbounds nuw i8, ptr %9, i64 92
  %14 = load i32, ptr %13, align 4
  %.not19 = icmp eq i32 %14, 0
  br i1 %.not19, label %19, label %15

15:                                               ; preds = %12
  %16 = getelementptr inbounds nuw i8, ptr %9, i64 88
  %17 = load i32, ptr %16, align 4
  %18 = icmp eq i32 %17, 6179
  br i1 %18, label %.thread23, label %19

19:                                               ; preds = %15, %12
  br label %.thread23

.thread23:                                        ; preds = %19, %15
  %.0 = phi i32 [ 0, %19 ], [ %14, %15 ]
  tail call void @ReleaseSysCache(ptr noundef nonnull %4) #8
  br label %.loopexit

20:                                               ; preds = %.lr.ph
  %21 = getelementptr inbounds nuw i8, ptr %9, i64 132
  %22 = load i32, ptr %21, align 4
  tail call void @ReleaseSysCache(ptr noundef nonnull %4) #8
  %23 = zext i32 %22 to i64
  %24 = tail call ptr @SearchSysCache1(i32 noundef 82, i64 noundef %23) #8
  %.not = icmp eq ptr %24, null
  br i1 %.not, label %.loopexit, label %.lr.ph

.loopexit:                                        ; preds = %20, %1, %.thread23
  %.2 = phi i32 [ %.0, %.thread23 ], [ 0, %1 ], [ 0, %20 ]
  ret i32 %.2
}